target datalayout = "e-m:e-p270:32:32-p271:32:32-p272:64:64-i64:64-i128:128-f80:128-n8:16:32:64-S128"
target triple = "x86_64-pc-linux-gnu"

%struct._asn1_ctx_t = type { i32, i32, i8, ptr, ptr, ptr, ptr, ptr, %struct.anon, %struct.anon.2, %struct.anon.3, ptr }
%struct.anon = type { i32, i8, i8, i8, ptr, ptr, i32, i32, ptr, ptr, ptr, %union.anon }
%union.anon = type { %struct.anon.0 }
%struct.anon.0 = type { ptr }
%struct.anon.2 = type { ptr, ptr, ptr }
%struct.anon.3 = type { i32, i8, ptr, i32, i32, ptr, ptr, ptr, %union.anon.4 }
%union.anon.4 = type { %struct.anon.5 }
%struct.anon.5 = type { ptr }
%struct._packet_info = type { ptr, ptr, i32, i32, %struct.nstime_t, %struct.nstime_t, %struct.nstime_t, i8, ptr, ptr, ptr, ptr, %struct._address, %struct._address, %struct._address, %struct._address, %struct._address, %struct._address, i32, ptr, i8, [3 x i8], %struct.anon.7, i32, i32, i32, i32, ptr, i8, ptr, ptr, i16, i16, i32, i32, i16, i32, i32, ptr, ptr, ptr, i8, i8, i16, i16, i16, i32, i16, i16, ptr, ptr, ptr, ptr, ptr, i32, i32 }
%struct.nstime_t = type { i64, i32 }
%struct._address = type { i32, i32, ptr, ptr }
%struct.anon.7 = type { i8, [3 x i8] }
%struct.p1_address_ctx = type { i8, ptr, i8, ptr }

@.str.6 = private unnamed_addr constant [6 x i8] c" (%s)\00", align 1

; Function Attrs: null_pointer_is_valid sspstrong uwtable
define hidden i32 @dissect_p1_ExtendedContentType(i1 noundef zeroext %0, ptr noundef %1, i32 noundef %2, ptr noundef %3, ptr noundef %4, i32 noundef %5) #0 {
  %7 = alloca i8, align 1
  %8 = alloca ptr, align 8
  %9 = alloca i32, align 4
  %10 = alloca ptr, align 8
  %11 = alloca ptr, align 8
  %12 = alloca i32, align 4
  %13 = alloca ptr, align 8
  %14 = alloca ptr, align 8
  %15 = zext i1 %0 to i8
  store i8 %15, ptr %7, align 1
  store ptr %1, ptr %8, align 8
  store i32 %2, ptr %9, align 4
  store ptr %3, ptr %10, align 8
  store ptr %4, ptr %11, align 8
  store i32 %5, ptr %12, align 4
  call void @llvm.lifetime.start.p0(i64 8, ptr %13) #5
  store ptr null, ptr %13, align 8
  call void @llvm.lifetime.start.p0(i64 8, ptr %14) #5
  %16 = load ptr, ptr %10, align 8
  %17 = getelementptr inbounds nuw %struct._asn1_ctx_t, ptr %16, i32 0, i32 9
  %18 = getelementptr inbounds nuw %struct.anon.2, ptr %17, i32 0, i32 2
  %19 = load ptr, ptr %18, align 8
  %20 = icmp eq ptr %19, null
  br i1 %20, label %21, label %31

21:                                               ; preds = %6
  %22 = load ptr, ptr %10, align 8
  %23 = getelementptr inbounds nuw %struct._asn1_ctx_t, ptr %22, i32 0, i32 3
  %24 = load ptr, ptr %23, align 8
  %25 = getelementptr inbounds nuw %struct._packet_info, ptr %24, i32 0, i32 51
  %26 = load ptr, ptr %25, align 8
  %27 = call noalias ptr @wmem_alloc0(ptr noundef %26, i64 noundef 32) #6
  %28 = load ptr, ptr %10, align 8
  %29 = getelementptr inbounds nuw %struct._asn1_ctx_t, ptr %28, i32 0, i32 9
  %30 = getelementptr inbounds nuw %struct.anon.2, ptr %29, i32 0, i32 2
  store ptr %27, ptr %30, align 8
  br label %31

31:                                               ; preds = %21, %6
  %32 = load ptr, ptr %10, align 8
  %33 = getelementptr inbounds nuw %struct._asn1_ctx_t, ptr %32, i32 0, i32 9
  %34 = getelementptr inbounds nuw %struct.anon.2, ptr %33, i32 0, i32 2
  %35 = load ptr, ptr %34, align 8
  store ptr %35, ptr %14, align 8
  %36 = load i8, ptr %7, align 1, !range !6, !noundef !7
  %37 = trunc i8 %36 to i1
  %38 = load ptr, ptr %10, align 8
  %39 = load ptr, ptr %11, align 8
  %40 = load ptr, ptr %8, align 8
  %41 = load i32, ptr %9, align 4
  %42 = load i32, ptr %12, align 4
  %43 = load ptr, ptr %14, align 8
  %44 = getelementptr inbounds nuw %struct.p1_address_ctx, ptr %43, i32 0, i32 1
  %45 = call i32 @dissect_ber_object_identifier_str(i1 noundef zeroext %37, ptr noundef %38, ptr noundef %39, ptr noundef %40, i32 noundef %41, i32 noundef %42, ptr noundef %44)
  store i32 %45, ptr %9, align 4
  %46 = load ptr, ptr %14, align 8
  %47 = getelementptr inbounds nuw %struct.p1_address_ctx, ptr %46, i32 0, i32 1
  %48 = load ptr, ptr %47, align 8
  %49 = icmp ne ptr %48, null
  br i1 %49, label %50, label %69

50:                                               ; preds = %31
  %51 = load ptr, ptr %10, align 8
  %52 = getelementptr inbounds nuw %struct._asn1_ctx_t, ptr %51, i32 0, i32 3
  %53 = load ptr, ptr %52, align 8
  %54 = getelementptr inbounds nuw %struct._packet_info, ptr %53, i32 0, i32 51
  %55 = load ptr, ptr %54, align 8
  %56 = load ptr, ptr %14, align 8
  %57 = getelementptr inbounds nuw %struct.p1_address_ctx, ptr %56, i32 0, i32 1
  %58 = load ptr, ptr %57, align 8
  %59 = call ptr @oid_resolved_from_string(ptr noundef %55, ptr noundef %58)
  store ptr %59, ptr %13, align 8
  %60 = load ptr, ptr %13, align 8
  %61 = icmp ne ptr %60, null
  br i1 %61, label %66, label %62

62:                                               ; preds = %50
  %63 = load ptr, ptr %14, align 8
  %64 = getelementptr inbounds nuw %struct.p1_address_ctx, ptr %63, i32 0, i32 1
  %65 = load ptr, ptr %64, align 8
  store ptr %65, ptr %13, align 8
  br label %66

66:                                               ; preds = %62, %50
  %67 = load ptr, ptr %11, align 8
  %68 = load ptr, ptr %13, align 8
  call void (ptr, ptr, ...) @proto_item_append_text(ptr noundef %67, ptr noundef @.str.6, ptr noundef %68)
  br label %69

69:                                               ; preds = %66, %31
  %70 = load i32, ptr %9, align 4
  call void @llvm.lifetime.end.p0(i64 8, ptr %14) #5
  call void @llvm.lifetime.end.p0(i64 8, ptr %13) #5
  ret i32 %70
}