; Function Attrs: null_pointer_is_valid sspstrong uwtable
define hidden i32 @dissect_p1_ExtendedContentType(i1 noundef zeroext %0, ptr noundef %1, i32 noundef %2, ptr noundef %3, ptr noundef %4, i32 noundef %5) #0 {
  %7 = getelementptr inbounds nuw i8, ptr %3, i64 136
  %8 = load ptr, ptr %7, align 8
  %9 = icmp eq ptr %8, null
  br i1 %9, label %10, label %16

10:                                               ; preds = %6
  %11 = getelementptr inbounds nuw i8, ptr %3, i64 16
  %12 = load ptr, ptr %11, align 8
  %13 = getelementptr inbounds nuw i8, ptr %12, i64 408
  %14 = load ptr, ptr %13, align 8
  %15 = tail call noalias dereferenceable_or_null(32) ptr @wmem_alloc0(ptr noundef %14, i64 noundef 32) #6
  store ptr %15, ptr %7, align 8
  br label %16

16:                                               ; preds = %10, %6
  %17 = phi ptr [ %15, %10 ], [ %8, %6 ]
  %18 = getelementptr inbounds nuw i8, ptr %17, i64 8
  %19 = tail call i32 @dissect_ber_object_identifier_str(i1 noundef zeroext %0, ptr noundef %3, ptr noundef %4, ptr noundef %1, i32 noundef %2, i32 noundef %5, ptr noundef nonnull %18)
  %20 = load ptr, ptr %18, align 8
  %.not = icmp eq ptr %20, null
  br i1 %.not, label %30, label %21

21:                                               ; preds = %16
  %22 = getelementptr inbounds nuw i8, ptr %3, i64 16
  %23 = load ptr, ptr %22, align 8
  %24 = getelementptr inbounds nuw i8, ptr %23, i64 408
  %25 = load ptr, ptr %24, align 8
  %26 = tail call ptr @oid_resolved_from_string(ptr noundef %25, ptr noundef nonnull %20)
  %.not20 = icmp eq ptr %26, null
  br i1 %.not20, label %27, label %29

27:                                               ; preds = %21
  %28 = load ptr, ptr %18, align 8
  br label %29

29:                                               ; preds = %27, %21
  %.0 = phi ptr [ %26, %21 ], [ %28, %27 ]
  tail call void (ptr, ptr, ...) @proto_item_append_text(ptr noundef %4, ptr noundef nonnull @.str.6, ptr noundef %.0)
  br label %30

30:                                               ; preds = %29, %16
  ret i32 %19
}